target datalayout = "e-m:e-p270:32:32-p271:32:32-p272:64:64-i64:64-i128:128-f80:128-n8:16:32:64-S128"
target triple = "x86_64-pc-linux-gnu"

%struct.H5FD_class_t = type { i32, i32, ptr, i64, i32, ptr, ptr, ptr, ptr, i64, ptr, ptr, ptr, i64, ptr, ptr, ptr, ptr, ptr, ptr, ptr, ptr, ptr, ptr, ptr, ptr, ptr, ptr, ptr, ptr, ptr, ptr, ptr, ptr, ptr, ptr, ptr, ptr, ptr, [7 x i32] }
%struct.H5PL_vfd_key_t = type { i32, %union.anon.1 }
%union.anon.1 = type { ptr }
%struct.H5FD_get_driver_ud_t = type { %struct.H5PL_vfd_key_t, i64 }

@H5FD_init_g = external global i8, align 1
@H5_libterm_g = external global i8, align 1

; Function Attrs: nounwind uwtable
define internal i32 @H5FD__get_driver_cb(ptr noundef %0, i64 noundef %1, ptr noundef %2) #0 {
  %4 = alloca ptr, align 8
  %5 = alloca i64, align 8
  %6 = alloca ptr, align 8
  %7 = alloca ptr, align 8
  %8 = alloca ptr, align 8
  %9 = alloca i32, align 4
  store ptr %0, ptr %4, align 8, !tbaa !31
  store i64 %1, ptr %5, align 8, !tbaa !10
  store ptr %2, ptr %6, align 8, !tbaa !31
  call void @llvm.lifetime.start.p0(i64 8, ptr %7) #8
  %10 = load ptr, ptr %6, align 8, !tbaa !31
  store ptr %10, ptr %7, align 8, !tbaa !112
  call void @llvm.lifetime.start.p0(i64 8, ptr %8) #8
  %11 = load ptr, ptr %4, align 8, !tbaa !31
  store ptr %11, ptr %8, align 8, !tbaa !76
  call void @llvm.lifetime.start.p0(i64 4, ptr %9) #8
  store i32 0, ptr %9, align 4, !tbaa !12
  %12 = load i8, ptr @H5FD_init_g, align 1, !tbaa !14, !range !16, !noundef !17
  %13 = trunc i8 %12 to i1
  br i1 %13, label %18, label %14

14:                                               ; preds = %3
  %15 = load i8, ptr @H5_libterm_g, align 1, !tbaa !14, !range !16, !noundef !17
  %16 = trunc i8 %15 to i1
  %17 = xor i1 %16, true
  br label %18

18:                                               ; preds = %14, %3
  %19 = phi i1 [ true, %3 ], [ %17, %14 ]
  %20 = xor i1 %19, true
  %21 = xor i1 %20, true
  %22 = zext i1 %21 to i32
  %23 = sext i32 %22 to i64
  %24 = call i64 @llvm.expect.i64(i64 %23, i64 1)
  %25 = icmp ne i64 %24, 0
  br i1 %25, label %26, label %62

26:                                               ; preds = %18
  %27 = load ptr, ptr %7, align 8, !tbaa !112
  %28 = getelementptr inbounds nuw %struct.H5FD_get_driver_ud_t, ptr %27, i32 0, i32 0
  %29 = getelementptr inbounds nuw %struct.H5PL_vfd_key_t, ptr %28, i32 0, i32 0
  %30 = load i32, ptr %29, align 8, !tbaa !108
  %31 = icmp eq i32 0, %30
  br i1 %31, label %32, label %47

32:                                               ; preds = %26
  %33 = load ptr, ptr %8, align 8, !tbaa !76
  %34 = getelementptr inbounds nuw %struct.H5FD_class_t, ptr %33, i32 0, i32 2
  %35 = load ptr, ptr %34, align 8, !tbaa !106
  %36 = load ptr, ptr %7, align 8, !tbaa !112
  %37 = getelementptr inbounds nuw %struct.H5FD_get_driver_ud_t, ptr %36, i32 0, i32 0
  %38 = getelementptr inbounds nuw %struct.H5PL_vfd_key_t, ptr %37, i32 0, i32 1
  %39 = load ptr, ptr %38, align 8, !tbaa !88
  %40 = call i32 @strcmp(ptr noundef %35, ptr noundef %39) #9
  %41 = icmp eq i32 0, %40
  br i1 %41, label %42, label %46

42:                                               ; preds = %32
  %43 = load i64, ptr %5, align 8, !tbaa !10
  %44 = load ptr, ptr %7, align 8, !tbaa !112
  %45 = getelementptr inbounds nuw %struct.H5FD_get_driver_ud_t, ptr %44, i32 0, i32 1
  store i64 %43, ptr %45, align 8, !tbaa !111
  store i32 1, ptr %9, align 4, !tbaa !12
  br label %46

46:                                               ; preds = %42, %32
  br label %61

47:                                               ; preds = %26
  %48 = load ptr, ptr %8, align 8, !tbaa !76
  %49 = getelementptr inbounds nuw %struct.H5FD_class_t, ptr %48, i32 0, i32 1
  %50 = load i32, ptr %49, align 4, !tbaa !107
  %51 = load ptr, ptr %7, align 8, !tbaa !112
  %52 = getelementptr inbounds nuw %struct.H5FD_get_driver_ud_t, ptr %51, i32 0, i32 0
  %53 = getelementptr inbounds nuw %struct.H5PL_vfd_key_t, ptr %52, i32 0, i32 1
  %54 = load i32, ptr %53, align 8, !tbaa !88
  %55 = icmp eq i32 %50, %54
  br i1 %55, label %56, label %60

56:                                               ; preds = %47
  %57 = load i64, ptr %5, align 8, !tbaa !10
  %58 = load ptr, ptr %7, align 8, !tbaa !112
  %59 = getelementptr inbounds nuw %struct.H5FD_get_driver_ud_t, ptr %58, i32 0, i32 1
  store i64 %57, ptr %59, align 8, !tbaa !111
  store i32 1, ptr %9, align 4, !tbaa !12
  br label %60

60:                                               ; preds = %56, %47
  br label %61

61:                                               ; preds = %60, %46
  br label %62

62:                                               ; preds = %61, %18
  %63 = load i32, ptr %9, align 4, !tbaa !12
  call void @llvm.lifetime.end.p0(i64 4, ptr %9) #8
  call void @llvm.lifetime.end.p0(i64 8, ptr %8) #8
  call void @llvm.lifetime.end.p0(i64 8, ptr %7) #8
  ret i32 %63
}