; Function Attrs: mustprogress nofree nounwind willreturn memory(read, argmem: readwrite, inaccessiblemem: none) uwtable
define internal range(i32 0, 2) i32 @H5FD__get_driver_cb(ptr noundef readonly captures(none) %0, i64 noundef %1, ptr noundef captures(none) %2) #7 {
  %4 = load i8, ptr @H5FD_init_g, align 1, !tbaa !3, !range !7, !noundef !8
  %5 = trunc nuw i8 %4 to i1
  %6 = load i8, ptr @H5_libterm_g, align 1, !range !7
  %7 = trunc nuw i8 %6 to i1
  %8 = xor i1 %7, true
  %9 = select i1 %5, i1 true, i1 %8
  br i1 %9, label %10, label %26, !prof !9

10:                                               ; preds = %3
  %11 = load i32, ptr %2, align 8, !tbaa !90
  %12 = icmp eq i32 %11, 0
  %13 = getelementptr inbounds nuw i8, ptr %2, i64 8
  br i1 %12, label %14, label %20

14:                                               ; preds = %10
  %15 = getelementptr inbounds nuw i8, ptr %0, i64 8
  %16 = load ptr, ptr %15, align 8, !tbaa !88
  %17 = load ptr, ptr %13, align 8, !tbaa !77
  %18 = tail call i32 @strcmp(ptr noundef nonnull dereferenceable(1) %16, ptr noundef nonnull dereferenceable(1) %17) #14
  %19 = icmp eq i32 %18, 0
  br i1 %19, label %.sink.split, label %26

20:                                               ; preds = %10
  %21 = getelementptr inbounds nuw i8, ptr %0, i64 4
  %22 = load i32, ptr %21, align 4, !tbaa !89
  %23 = load i32, ptr %13, align 8, !tbaa !77
  %24 = icmp eq i32 %22, %23
  br i1 %24, label %.sink.split, label %26

.sink.split:                                      ; preds = %20, %14
  %25 = getelementptr inbounds nuw i8, ptr %2, i64 16
  store i64 %1, ptr %25, align 8, !tbaa !93
  br label %26

26:                                               ; preds = %.sink.split, %14, %20, %3
  %.0 = phi i32 [ 0, %14 ], [ 0, %20 ], [ 0, %3 ], [ 1, %.sink.split ]
  ret i32 %.0
}